target datalayout = "e-m:e-p270:32:32-p271:32:32-p272:64:64-i64:64-i128:128-f80:128-n8:16:32:64-S128"
target triple = "x86_64-unknown-linux-gnu"

@.str.1 = private unnamed_addr constant [47 x i8] c"%s: Unable to copy device tree into memory: %s\00", align 1
@.str.3 = private unnamed_addr constant [44 x i8] c"Unable to get size of device tree file '%s'\00", align 1
@.str.4 = private unnamed_addr constant [35 x i8] c"Device tree file '%s' is too large\00", align 1
@.str.5 = private unnamed_addr constant [37 x i8] c"Unable to open device tree file '%s'\00", align 1
@__func__.load_device_tree = private unnamed_addr constant [17 x i8] c"load_device_tree\00", align 1
@.str.6 = private unnamed_addr constant [51 x i8] c"Device tree file loaded into memory is invalid: %s\00", align 1

; Function Attrs: nounwind sspstrong uwtable
define dso_local ptr @load_device_tree(ptr noundef %filename_path, ptr noundef %sizep) #0 {
entry:
  %retval = alloca ptr, align 8
  %filename_path.addr = alloca ptr, align 8
  %sizep.addr = alloca ptr, align 8
  %dt_size = alloca i32, align 4
  %dt_file_load_size = alloca i32, align 4
  %ret = alloca i32, align 4
  %fdt = alloca ptr, align 8
  store ptr %filename_path, ptr %filename_path.addr, align 8
  store ptr %sizep, ptr %sizep.addr, align 8
  store ptr null, ptr %fdt, align 8
  %0 = load ptr, ptr %sizep.addr, align 8
  store i32 0, ptr %0, align 4
  %1 = load ptr, ptr %filename_path.addr, align 8
  %call = call i64 @get_image_size(ptr noundef %1)
  %conv = trunc i64 %call to i32
  store i32 %conv, ptr %dt_size, align 4
  %2 = load i32, ptr %dt_size, align 4
  %cmp = icmp slt i32 %2, 0
  br i1 %cmp, label %if.then, label %if.end

if.then:                                          ; preds = %entry
  %3 = load ptr, ptr %filename_path.addr, align 8
  call void (ptr, ...) @error_report(ptr noundef @.str.3, ptr noundef %3)
  br label %fail

if.end:                                           ; preds = %entry
  %4 = load i32, ptr %dt_size, align 4
  %cmp2 = icmp sgt i32 %4, 1073731823
  br i1 %cmp2, label %if.then4, label %if.end5

if.then4:                                         ; preds = %if.end
  %5 = load ptr, ptr %filename_path.addr, align 8
  call void (ptr, ...) @error_report(ptr noundef @.str.4, ptr noundef %5)
  br label %fail

if.end5:                                          ; preds = %if.end
  %6 = load i32, ptr %dt_size, align 4
  %add = add i32 %6, 10000
  store i32 %add, ptr %dt_size, align 4
  %7 = load i32, ptr %dt_size, align 4
  %mul = mul i32 %7, 2
  store i32 %mul, ptr %dt_size, align 4
  %8 = load i32, ptr %dt_size, align 4
  %conv6 = sext i32 %8 to i64
  %call7 = call noalias ptr @g_malloc0(i64 noundef %conv6) #9
  store ptr %call7, ptr %fdt, align 8
  %9 = load ptr, ptr %filename_path.addr, align 8
  %10 = load ptr, ptr %fdt, align 8
  %11 = load i32, ptr %dt_size, align 4
  %conv8 = sext i32 %11 to i64
  %call9 = call i64 @load_image_size(ptr noundef %9, ptr noundef %10, i64 noundef %conv8)
  %conv10 = trunc i64 %call9 to i32
  store i32 %conv10, ptr %dt_file_load_size, align 4
  %12 = load i32, ptr %dt_file_load_size, align 4
  %cmp11 = icmp slt i32 %12, 0
  br i1 %cmp11, label %if.then13, label %if.end14

if.then13:                                        ; preds = %if.end5
  %13 = load ptr, ptr %filename_path.addr, align 8
  call void (ptr, ...) @error_report(ptr noundef @.str.5, ptr noundef %13)
  br label %fail

if.end14:                                         ; preds = %if.end5
  %14 = load ptr, ptr %fdt, align 8
  %15 = load ptr, ptr %fdt, align 8
  %16 = load i32, ptr %dt_size, align 4
  %call15 = call i32 @fdt_open_into(ptr noundef %14, ptr noundef %15, i32 noundef %16)
  store i32 %call15, ptr %ret, align 4
  %17 = load i32, ptr %ret, align 4
  %tobool = icmp ne i32 %17, 0
  br i1 %tobool, label %if.then16, label %if.end18

if.then16:                                        ; preds = %if.end14
  %18 = load i32, ptr %ret, align 4
  %call17 = call ptr @fdt_strerror(i32 noundef %18)
  call void (ptr, ...) @error_report(ptr noundef @.str.1, ptr noundef @__func__.load_device_tree, ptr noundef %call17)
  br label %fail

if.end18:                                         ; preds = %if.end14
  %19 = load ptr, ptr %fdt, align 8
  %call19 = call i32 @fdt_check_header(ptr noundef %19)
  %tobool20 = icmp ne i32 %call19, 0
  br i1 %tobool20, label %if.then21, label %if.end22

if.then21:                                        ; preds = %if.end18
  %20 = load ptr, ptr %filename_path.addr, align 8
  call void (ptr, ...) @error_report(ptr noundef @.str.6, ptr noundef %20)
  br label %fail

if.end22:                                         ; preds = %if.end18
  %21 = load i32, ptr %dt_size, align 4
  %22 = load ptr, ptr %sizep.addr, align 8
  store i32 %21, ptr %22, align 4
  %23 = load ptr, ptr %fdt, align 8
  store ptr %23, ptr %retval, align 8
  br label %return

fail:                                             ; preds = %if.then21, %if.then16, %if.then13, %if.then4, %if.then
  %24 = load ptr, ptr %fdt, align 8
  call void @g_free(ptr noundef %24)
  store ptr null, ptr %retval, align 8
  br label %return

return:                                           ; preds = %fail, %if.end22
  %25 = load ptr, ptr %retval, align 8
  ret ptr %25
}