; Function Attrs: nounwind sspstrong uwtable
define dso_local noundef ptr @load_device_tree(ptr noundef %filename_path, ptr noundef writeonly captures(none) initializes((0, 4)) %sizep) local_unnamed_addr #0 {
entry:
  store i32 0, ptr %sizep, align 4
  %call = tail call i64 @get_image_size(ptr noundef %filename_path) #12
  %conv = trunc i64 %call to i32
  %cmp = icmp slt i32 %conv, 0
  br i1 %cmp, label %if.then, label %if.end

if.then:                                          ; preds = %entry
  tail call void (ptr, ...) @error_report(ptr noundef nonnull @.str.3, ptr noundef %filename_path) #12
  br label %fail

if.end:                                           ; preds = %entry
  %cmp2 = icmp samesign ugt i32 %conv, 1073731823
  br i1 %cmp2, label %if.then4, label %if.end5

if.then4:                                         ; preds = %if.end
  tail call void (ptr, ...) @error_report(ptr noundef nonnull @.str.4, ptr noundef %filename_path) #12
  br label %fail

if.end5:                                          ; preds = %if.end
  %add = shl nuw nsw i32 %conv, 1
  %mul = add nuw nsw i32 %add, 20000
  %conv6 = zext nneg i32 %mul to i64
  %call7 = tail call noalias ptr @g_malloc0(i64 noundef %conv6) #11
  %call9 = tail call i64 @load_image_size(ptr noundef %filename_path, ptr noundef %call7, i64 noundef %conv6) #12
  %0 = and i64 %call9, 2147483648
  %cmp11.not = icmp eq i64 %0, 0
  br i1 %cmp11.not, label %if.end14, label %if.then13

if.then13:                                        ; preds = %if.end5
  tail call void (ptr, ...) @error_report(ptr noundef nonnull @.str.5, ptr noundef %filename_path) #12
  br label %fail

if.end14:                                         ; preds = %if.end5
  %call15 = tail call i32 @fdt_open_into(ptr noundef %call7, ptr noundef %call7, i32 noundef %mul) #12
  %tobool.not = icmp eq i32 %call15, 0
  br i1 %tobool.not, label %if.end18, label %if.then16

if.then16:                                        ; preds = %if.end14
  %call17 = tail call ptr @fdt_strerror(i32 noundef %call15) #12
  tail call void (ptr, ...) @error_report(ptr noundef nonnull @.str.1, ptr noundef nonnull @__func__.load_device_tree, ptr noundef %call17) #12
  br label %fail

if.end18:                                         ; preds = %if.end14
  %call19 = tail call i32 @fdt_check_header(ptr noundef %call7) #12
  %tobool20.not = icmp eq i32 %call19, 0
  br i1 %tobool20.not, label %if.end22, label %if.then21

if.then21:                                        ; preds = %if.end18
  tail call void (ptr, ...) @error_report(ptr noundef nonnull @.str.6, ptr noundef %filename_path) #12
  br label %fail

if.end22:                                         ; preds = %if.end18
  store i32 %mul, ptr %sizep, align 4
  br label %return

fail:                                             ; preds = %if.then21, %if.then16, %if.then13, %if.then4, %if.then
  %fdt.0 = phi ptr [ null, %if.then ], [ null, %if.then4 ], [ %call7, %if.then13 ], [ %call7, %if.then16 ], [ %call7, %if.then21 ]
  tail call void @g_free(ptr noundef %fdt.0) #12
  br label %return

return:                                           ; preds = %fail, %if.end22
  %retval.0 = phi ptr [ null, %fail ], [ %call7, %if.end22 ]
  ret ptr %retval.0
}